; Function Attrs: nounwind uwtable
define internal fastcc void @percpu_arena_update(ptr noundef %tsd, i32 noundef %cpu) unnamed_addr #1 {
entry:
  %cant_access_tsd_items_directly_use_a_getter_or_setter_arena.i = getelementptr inbounds i8, ptr %tsd, i64 144
  %0 = load ptr, ptr %cant_access_tsd_items_directly_use_a_getter_or_setter_arena.i, align 8
  %1 = getelementptr i8, ptr %0, i64 78928
  %.val = load i32, ptr %1, align 8
  %cmp.not = icmp eq i32 %.val, %cpu
  br i1 %cmp.not, label %if.end13, label %if.then

if.then:                                          ; preds = %entry
  %idxprom.i = zext i32 %cpu to i64
  %arrayidx.i = getelementptr inbounds [0 x %struct.atomic_p_t], ptr @arenas, i64 0, i64 %idxprom.i
  %2 = load atomic i64, ptr %arrayidx.i acquire, align 8
  %3 = inttoptr i64 %2 to ptr
  %cmp.i = icmp eq i64 %2, 0
  br i1 %cmp.i, label %if.then3.i, label %arena_get.exit

if.then3.i:                                       ; preds = %if.then
  %call4.i = tail call ptr @arena_init(ptr noundef nonnull %tsd, i32 noundef %cpu, ptr noundef nonnull @arena_config_default)
  br label %arena_get.exit

arena_get.exit:                                   ; preds = %if.then, %if.then3.i
  %ret.0.i = phi ptr [ %call4.i, %if.then3.i ], [ %3, %if.then ]
  tail call void @arena_nthreads_dec(ptr noundef nonnull %0, i1 noundef zeroext false) #19
  tail call void @arena_nthreads_inc(ptr noundef %ret.0.i, i1 noundef zeroext false) #19
  store ptr %ret.0.i, ptr %cant_access_tsd_items_directly_use_a_getter_or_setter_arena.i, align 8
  %call.i = tail call i32 @arena_nthreads_get(ptr noundef nonnull %0, i1 noundef zeroext false) #19
  %cmp.i15 = icmp eq i32 %call.i, 0
  br i1 %cmp.i15, label %if.then.i, label %arena_migrate.exit

if.then.i:                                        ; preds = %arena_get.exit
  tail call void @arena_decay(ptr noundef nonnull %tsd, ptr noundef nonnull %0, i1 noundef zeroext false, i1 noundef zeroext true) #19
  br label %arena_migrate.exit

arena_migrate.exit:                               ; preds = %arena_get.exit, %if.then.i
  %4 = load i8, ptr %tsd, align 1
  %5 = and i8 %4, 1
  %tobool.i.not.not = icmp eq i8 %5, 0
  br i1 %tobool.i.not.not, label %if.end13, label %if.then10

if.then10:                                        ; preds = %arena_migrate.exit
  %cant_access_tsd_items_directly_use_a_getter_or_setter_tcache.i.i = getelementptr inbounds i8, ptr %tsd, i64 872
  %cant_access_tsd_items_directly_use_a_getter_or_setter_tcache_slow.i = getelementptr inbounds i8, ptr %tsd, i64 256
  tail call void @tcache_arena_reassociate(ptr noundef nonnull %tsd, ptr noundef nonnull %cant_access_tsd_items_directly_use_a_getter_or_setter_tcache_slow.i, ptr noundef nonnull %cant_access_tsd_items_directly_use_a_getter_or_setter_tcache.i.i, ptr noundef %ret.0.i) #19
  br label %if.end13

if.end13:                                         ; preds = %arena_migrate.exit, %if.then10, %entry
  ret void
}